#include <math.h>
#include <stdio.h>
#include <stdlib.h>
#include <string.h>

void compute(int shuzu);
int main()
{
	int n,i,k,sum=0,a,b;
	scanf("%d",&n);
	int *shuzu=(int*)malloc(sizeof(int)*n);
	for(i=0;i<n;i++)
	{
           scanf("%d",&shuzu[i]);
    }
    for(i=0;i<n;i++)
    {
        if(shuzu[i]<=2)
        {
           printf("1\n");
        }else{ 
               a=1;
               b=1;
               for(k=3;k<=shuzu[i];k++)
               {
                   sum=a+b;
                   a=b;
                   b=sum;
               }
               printf("%d\n",sum);
              }
    }
    free(shuzu);	
	return 0;
}