; ModuleID = 'source-C-CXX/60/673.c'
source_filename = "source-C-CXX/60/673.c"
target datalayout = "e-m:e-p270:32:32-p271:32:32-p272:64:64-i64:64-f80:128-n8:16:32:64-S128"
target triple = "x86_64-pc-linux-gnu"

@.str = private unnamed_addr constant [3 x i8] c"%d\00", align 1
@.str.2 = private unnamed_addr constant [4 x i8] c"%d\0A\00", align 1
@str = private unnamed_addr constant [2 x i8] c"1\00", align 1

; Function Attrs: nounwind sspstrong uwtable
define dso_local i32 @main() local_unnamed_addr #0 {
  %1 = alloca i32, align 4
  %2 = bitcast i32* %1 to i8*
  call void @llvm.lifetime.start.p0i8(i64 4, i8* nonnull %2) #6
  %3 = call i32 (i8*, ...) @__isoc99_scanf(i8* getelementptr inbounds ([3 x i8], [3 x i8]* @.str, i64 0, i64 0), i32* nonnull %1)
  %4 = load i32, i32* %1, align 4, !tbaa !5
  %5 = sext i32 %4 to i64
  %6 = shl nsw i64 %5, 2
  %7 = call noalias align 16 i8* @malloc(i64 %6) #6
  %8 = bitcast i8* %7 to i32*
  %9 = icmp sgt i32 %4, 0
  br i1 %9, label %12, label %68

10:                                               ; preds = %12
  %11 = icmp sgt i32 %17, 0
  br i1 %11, label %20, label %68

12:                                               ; preds = %0, %12
  %13 = phi i64 [ %16, %12 ], [ 0, %0 ]
  %14 = getelementptr inbounds i32, i32* %8, i64 %13
  %15 = call i32 (i8*, ...) @__isoc99_scanf(i8* getelementptr inbounds ([3 x i8], [3 x i8]* @.str, i64 0, i64 0), i32* %14)
  %16 = add nuw nsw i64 %13, 1
  %17 = load i32, i32* %1, align 4, !tbaa !5
  %18 = sext i32 %17 to i64
  %19 = icmp slt i64 %16, %18
  br i1 %19, label %12, label %10, !llvm.loop !9

20:                                               ; preds = %10, %63
  %21 = phi i64 [ %64, %63 ], [ 0, %10 ]
  %22 = getelementptr inbounds i32, i32* %8, i64 %21
  %23 = load i32, i32* %22, align 4, !tbaa !5
  %24 = icmp slt i32 %23, 3
  br i1 %24, label %32, label %25

25:                                               ; preds = %20
  %26 = add i32 %23, -2
  %27 = add i32 %23, -3
  %28 = and i32 %26, 7
  %29 = icmp ult i32 %27, 7
  br i1 %29, label %48, label %30

30:                                               ; preds = %25
  %31 = and i32 %26, -8
  br label %34

32:                                               ; preds = %20
  %33 = call i32 @puts(i8* nonnull dereferenceable(1) getelementptr inbounds ([2 x i8], [2 x i8]* @str, i64 0, i64 0))
  br label %63

34:                                               ; preds = %34, %30
  %35 = phi i32 [ 1, %30 ], [ %45, %34 ]
  %36 = phi i32 [ 1, %30 ], [ %44, %34 ]
  %37 = phi i32 [ %31, %30 ], [ %46, %34 ]
  %38 = add nsw i32 %35, %36
  %39 = add nsw i32 %38, %35
  %40 = add nsw i32 %39, %38
  %41 = add nsw i32 %40, %39
  %42 = add nsw i32 %41, %40
  %43 = add nsw i32 %42, %41
  %44 = add nsw i32 %43, %42
  %45 = add nsw i32 %44, %43
  %46 = add i32 %37, -8
  %47 = icmp eq i32 %46, 0
  br i1 %47, label %48, label %34, !llvm.loop !11

48:                                               ; preds = %34, %25
  %49 = phi i32 [ undef, %25 ], [ %45, %34 ]
  %50 = phi i32 [ 1, %25 ], [ %45, %34 ]
  %51 = phi i32 [ 1, %25 ], [ %44, %34 ]
  %52 = icmp eq i32 %28, 0
  br i1 %52, label %60, label %53

53:                                               ; preds = %48, %53
  %54 = phi i32 [ %57, %53 ], [ %50, %48 ]
  %55 = phi i32 [ %54, %53 ], [ %51, %48 ]
  %56 = phi i32 [ %58, %53 ], [ %28, %48 ]
  %57 = add nsw i32 %54, %55
  %58 = add i32 %56, -1
  %59 = icmp eq i32 %58, 0
  br i1 %59, label %60, label %53, !llvm.loop !12

60:                                               ; preds = %53, %48
  %61 = phi i32 [ %49, %48 ], [ %57, %53 ]
  %62 = call i32 (i8*, ...) @printf(i8* nonnull dereferenceable(1) getelementptr inbounds ([4 x i8], [4 x i8]* @.str.2, i64 0, i64 0), i32 %61)
  br label %63

63:                                               ; preds = %32, %60
  %64 = add nuw nsw i64 %21, 1
  %65 = load i32, i32* %1, align 4, !tbaa !5
  %66 = sext i32 %65 to i64
  %67 = icmp slt i64 %64, %66
  br i1 %67, label %20, label %68, !llvm.loop !14

68:                                               ; preds = %63, %0, %10
  call void @free(i8* %7) #6
  call void @llvm.lifetime.end.p0i8(i64 4, i8* nonnull %2) #6
  ret i32 0
}

; Function Attrs: argmemonly mustprogress nofree nosync nounwind willreturn
declare void @llvm.lifetime.start.p0i8(i64 immarg, i8* nocapture) #1

; Function Attrs: nofree nounwind
declare noundef i32 @__isoc99_scanf(i8* nocapture noundef readonly, ...) local_unnamed_addr #2

; Function Attrs: inaccessiblememonly mustprogress nofree nounwind willreturn
declare noalias noundef align 16 i8* @malloc(i64 noundef) local_unnamed_addr #3

; Function Attrs: nofree nounwind
declare noundef i32 @printf(i8* nocapture noundef readonly, ...) local_unnamed_addr #2

; Function Attrs: inaccessiblemem_or_argmemonly mustprogress nounwind willreturn
declare void @free(i8* nocapture noundef) local_unnamed_addr #4

; Function Attrs: argmemonly mustprogress nofree nosync nounwind willreturn
declare void @llvm.lifetime.end.p0i8(i64 immarg, i8* nocapture) #1

; Function Attrs: nofree nounwind
declare noundef i32 @puts(i8* nocapture noundef readonly) local_unnamed_addr #5


!llvm.module.flags = !{!0, !1, !2, !3}
!llvm.ident = !{!4}

!0 = !{i32 1, !"wchar_size", i32 4}
!1 = !{i32 7, !"PIC Level", i32 2}
!2 = !{i32 7, !"PIE Level", i32 2}
!3 = !{i32 7, !"uwtable", i32 1}
!4 = !{!"clang version 13.0.0"}
!5 = !{!6, !6, i64 0}
!6 = !{!"int", !7, i64 0}
!7 = !{!"omnipotent char", !8, i64 0}
!8 = !{!"Simple C/C++ TBAA"}
!9 = distinct !{!9, !10}
!10 = !{!"llvm.loop.mustprogress"}
!11 = distinct !{!11, !10}
!12 = distinct !{!12, !13}
!13 = !{!"llvm.loop.unroll.disable"}
!14 = distinct !{!14, !10}
